; Function Attrs: mustprogress uwtable
define void @_ZN6icu_7522MetaZoneIDsEnumerationC2ERKNS_7UVectorE(ptr noundef nonnull align 8 dereferenceable(144) %this, ptr noundef nonnull align 8 dereferenceable(40) %mzIDs) unnamed_addr #1 align 2 personality ptr @__gxx_personality_v0 {
entry:
  tail call void @_ZN6icu_7517StringEnumerationC2Ev(ptr noundef nonnull align 8 dereferenceable(116) %this)
  store ptr getelementptr inbounds ({ [13 x ptr] }, ptr @_ZTVN6icu_7522MetaZoneIDsEnumerationE, i64 0, i32 0, i64 2), ptr %this, align 8
  %fPos = getelementptr inbounds i8, ptr %this, i64 120
  store i32 0, ptr %fPos, align 8
  %fMetaZoneIDs = getelementptr inbounds i8, ptr %this, i64 128
  store ptr %mzIDs, ptr %fMetaZoneIDs, align 8
  %fLocalVector = getelementptr inbounds i8, ptr %this, i64 136
  store ptr null, ptr %fLocalVector, align 8
  %count.i = getelementptr inbounds i8, ptr %mzIDs, i64 8
  %0 = load i32, ptr %count.i, align 8
  %fLen = getelementptr inbounds i8, ptr %this, i64 116
  store i32 %0, ptr %fLen, align 4
  ret void
}